; Function Attrs: mustprogress nofree norecurse nosync nounwind willreturn memory(argmem: readwrite) uwtable
define void @_ZN7rocksdb13BlobLogWriterC2EOSt10unique_ptrINS_18WritableFileWriterESt14default_deleteIS2_EEPNS_11SystemClockEPNS_10StatisticsEmbbm(ptr noundef nonnull writeonly align 8 captures(none) dereferenceable(48) initializes((0, 42), (44, 48)) %0, ptr noundef nonnull align 8 captures(none) dereferenceable(8) %1, ptr noundef %2, ptr noundef %3, i64 noundef %4, i1 noundef zeroext %5, i1 noundef zeroext %6, i64 noundef %7) unnamed_addr #4 align 2 {
  %9 = zext i1 %5 to i8
  %10 = zext i1 %6 to i8
  %11 = load i64, ptr %1, align 8, !tbaa !18
  store i64 %11, ptr %0, align 8, !tbaa !18
  store ptr null, ptr %1, align 8, !tbaa !18
  %12 = getelementptr inbounds nuw i8, ptr %0, i64 8
  store ptr %2, ptr %12, align 8, !tbaa !20
  %13 = getelementptr inbounds nuw i8, ptr %0, i64 16
  store ptr %3, ptr %13, align 8, !tbaa !32
  %14 = getelementptr inbounds nuw i8, ptr %0, i64 24
  store i64 %4, ptr %14, align 8, !tbaa !33
  %15 = getelementptr inbounds nuw i8, ptr %0, i64 32
  store i64 %7, ptr %15, align 8, !tbaa !34
  %16 = getelementptr inbounds nuw i8, ptr %0, i64 40
  store i8 %9, ptr %16, align 8, !tbaa !35
  %17 = getelementptr inbounds nuw i8, ptr %0, i64 41
  store i8 %10, ptr %17, align 1, !tbaa !36
  %18 = getelementptr inbounds nuw i8, ptr %0, i64 44
  store i32 0, ptr %18, align 4, !tbaa !37
  ret void
}